target datalayout = "e-m:e-p270:32:32-p271:32:32-p272:64:64-i64:64-i128:128-f80:128-n8:16:32:64-S128"
target triple = "x86_64-pc-linux-gnu"

%class.vector = type { ptr }

; Function Attrs: mustprogress nounwind uwtable
define linkonce_odr hidden noundef nonnull align 8 dereferenceable(8) ptr @_ZN6vectorIPN7datalog4ruleELb0EjEixEj(ptr noundef nonnull align 8 dereferenceable(8) %0, i32 noundef %1) #5 comdat align 2 {
  %3 = alloca ptr, align 8
  %4 = alloca i32, align 4
  store ptr %0, ptr %3, align 8, !tbaa !81
  store i32 %1, ptr %4, align 4, !tbaa !64
  %5 = load ptr, ptr %3, align 8
  %6 = getelementptr inbounds nuw %class.vector, ptr %5, i32 0, i32 0
  %7 = load ptr, ptr %6, align 8, !tbaa !83
  %8 = load i32, ptr %4, align 4, !tbaa !64
  %9 = zext i32 %8 to i64
  %10 = getelementptr inbounds nuw ptr, ptr %7, i64 %9
  ret ptr %10
}

; Function Attrs: mustprogress nounwind uwtable
define linkonce_odr hidden noundef i32 @_ZNK6vectorIPN7datalog4ruleELb0EjE4sizeEv(ptr noundef nonnull align 8 dereferenceable(8) %0) #5 comdat align 2 {
  %2 = alloca i32, align 4
  %3 = alloca ptr, align 8
  store ptr %0, ptr %3, align 8, !tbaa !81
  %4 = load ptr, ptr %3, align 8
  %5 = getelementptr inbounds nuw %class.vector, ptr %4, i32 0, i32 0
  %6 = load ptr, ptr %5, align 8, !tbaa !83
  %7 = icmp eq ptr %6, null
  br i1 %7, label %8, label %9

8:                                                ; preds = %1
  store i32 0, ptr %2, align 4
  br label %14

9:                                                ; preds = %1
  %10 = getelementptr inbounds nuw %class.vector, ptr %4, i32 0, i32 0
  %11 = load ptr, ptr %10, align 8, !tbaa !83
  %12 = getelementptr inbounds i32, ptr %11, i64 -1
  %13 = load i32, ptr %12, align 4, !tbaa !64
  store i32 %13, ptr %2, align 4
  br label %14

14:                                               ; preds = %9, %8
  %15 = load i32, ptr %2, align 4
  ret i32 %15
}

; Function Attrs: mustprogress uwtable
define linkonce_odr hidden noundef nonnull align 8 dereferenceable(8) ptr @_ZN6vectorIPN7datalog4ruleELb0EjE9push_backERKS2_(ptr noundef nonnull align 8 dereferenceable(8) %0, ptr noundef nonnull align 8 dereferenceable(8) %1) #4 comdat align 2 {
  %3 = alloca ptr, align 8
  %4 = alloca ptr, align 8
  store ptr %0, ptr %3, align 8, !tbaa !81
  store ptr %1, ptr %4, align 8, !tbaa !61
  %5 = load ptr, ptr %3, align 8
  %6 = getelementptr inbounds nuw %class.vector, ptr %5, i32 0, i32 0
  %7 = load ptr, ptr %6, align 8, !tbaa !83
  %8 = icmp eq ptr %7, null
  br i1 %8, label %19, label %9

9:                                                ; preds = %2
  %10 = getelementptr inbounds nuw %class.vector, ptr %5, i32 0, i32 0
  %11 = load ptr, ptr %10, align 8, !tbaa !83
  %12 = getelementptr inbounds i32, ptr %11, i64 -1
  %13 = load i32, ptr %12, align 4, !tbaa !64
  %14 = getelementptr inbounds nuw %class.vector, ptr %5, i32 0, i32 0
  %15 = load ptr, ptr %14, align 8, !tbaa !83
  %16 = getelementptr inbounds i32, ptr %15, i64 -2
  %17 = load i32, ptr %16, align 4, !tbaa !64
  %18 = icmp eq i32 %13, %17
  br i1 %18, label %19, label %20

19:                                               ; preds = %9, %2
  call void @_ZN6vectorIPN7datalog4ruleELb0EjE13expand_vectorEv(ptr noundef nonnull align 8 dereferenceable(8) %5)
  br label %20

20:                                               ; preds = %19, %9
  %21 = getelementptr inbounds nuw %class.vector, ptr %5, i32 0, i32 0
  %22 = load ptr, ptr %21, align 8, !tbaa !83
  %23 = getelementptr inbounds nuw %class.vector, ptr %5, i32 0, i32 0
  %24 = load ptr, ptr %23, align 8, !tbaa !83
  %25 = getelementptr inbounds i32, ptr %24, i64 -1
  %26 = load i32, ptr %25, align 4, !tbaa !64
  %27 = zext i32 %26 to i64
  %28 = getelementptr inbounds nuw ptr, ptr %22, i64 %27
  %29 = load ptr, ptr %4, align 8, !tbaa !61
  %30 = load ptr, ptr %29, align 8, !tbaa !62
  store ptr %30, ptr %28, align 8, !tbaa !62
  %31 = getelementptr inbounds nuw %class.vector, ptr %5, i32 0, i32 0
  %32 = load ptr, ptr %31, align 8, !tbaa !83
  %33 = getelementptr inbounds i32, ptr %32, i64 -1
  %34 = load i32, ptr %33, align 4, !tbaa !64
  %35 = add i32 %34, 1
  store i32 %35, ptr %33, align 4, !tbaa !64
  ret ptr %5
}

; Function Attrs: mustprogress nounwind uwtable
define linkonce_odr hidden noundef nonnull align 8 dereferenceable(8) ptr @_ZN6vectorIPN7datalog4ruleELb0EjE4backEv(ptr noundef nonnull align 8 dereferenceable(8) %0) #5 comdat align 2 {
  %2 = alloca ptr, align 8
  store ptr %0, ptr %2, align 8, !tbaa !81
  %3 = load ptr, ptr %2, align 8
  %4 = call noundef i32 @_ZNK6vectorIPN7datalog4ruleELb0EjE4sizeEv(ptr noundef nonnull align 8 dereferenceable(8) %3)
  %5 = sub i32 %4, 1
  %6 = call noundef nonnull align 8 dereferenceable(8) ptr @_ZN6vectorIPN7datalog4ruleELb0EjEixEj(ptr noundef nonnull align 8 dereferenceable(8) %3, i32 noundef %5)
  ret ptr %6
}

; Function Attrs: mustprogress nounwind uwtable
define linkonce_odr hidden noundef zeroext i1 @_ZNK6vectorIPN7datalog4ruleELb0EjE5emptyEv(ptr noundef nonnull align 8 dereferenceable(8) %0) #5 comdat align 2 {
  %2 = alloca ptr, align 8
  store ptr %0, ptr %2, align 8, !tbaa !81
  %3 = load ptr, ptr %2, align 8
  %4 = getelementptr inbounds nuw %class.vector, ptr %3, i32 0, i32 0
  %5 = load ptr, ptr %4, align 8, !tbaa !83
  %6 = icmp eq ptr %5, null
  br i1 %6, label %13, label %7

7:                                                ; preds = %1
  %8 = getelementptr inbounds nuw %class.vector, ptr %3, i32 0, i32 0
  %9 = load ptr, ptr %8, align 8, !tbaa !83
  %10 = getelementptr inbounds i32, ptr %9, i64 -1
  %11 = load i32, ptr %10, align 4, !tbaa !64
  %12 = icmp eq i32 %11, 0
  br label %13

13:                                               ; preds = %7, %1
  %14 = phi i1 [ true, %1 ], [ %12, %7 ]
  ret i1 %14
}

; Function Attrs: mustprogress uwtable
define hidden void @_ZN7datalog15rule_properties6insertER10ptr_vectorINS_4ruleEEPS2_(ptr noundef nonnull align 8 dereferenceable(258) %0, ptr noundef nonnull align 8 dereferenceable(8) %1, ptr noundef %2) #4 align 2 {
  %4 = alloca ptr, align 8
  %5 = alloca ptr, align 8
  %6 = alloca ptr, align 8
  store ptr %0, ptr %4, align 8, !tbaa !3
  store ptr %1, ptr %5, align 8, !tbaa !53
  store ptr %2, ptr %6, align 8, !tbaa !62
  %7 = load ptr, ptr %5, align 8, !tbaa !53
  %8 = call noundef zeroext i1 @_ZNK6vectorIPN7datalog4ruleELb0EjE5emptyEv(ptr noundef nonnull align 8 dereferenceable(8) %7)
  br i1 %8, label %15, label %9

9:                                                ; preds = %3
  %10 = load ptr, ptr %5, align 8, !tbaa !53
  %11 = call noundef nonnull align 8 dereferenceable(8) ptr @_ZN6vectorIPN7datalog4ruleELb0EjE4backEv(ptr noundef nonnull align 8 dereferenceable(8) %10)
  %12 = load ptr, ptr %11, align 8, !tbaa !62
  %13 = load ptr, ptr %6, align 8, !tbaa !62
  %14 = icmp ne ptr %12, %13
  br i1 %14, label %15, label %18

15:                                               ; preds = %9, %3
  %16 = load ptr, ptr %5, align 8, !tbaa !53
  %17 = call noundef nonnull align 8 dereferenceable(8) ptr @_ZN6vectorIPN7datalog4ruleELb0EjE9push_backERKS2_(ptr noundef nonnull align 8 dereferenceable(8) %16, ptr noundef nonnull align 8 dereferenceable(8) %6)
  br label %18

18:                                               ; preds = %15, %9
  ret void
}