; Function Attrs: mustprogress uwtable
define hidden void @_ZN7datalog15rule_properties6insertER10ptr_vectorINS_4ruleEEPS2_(ptr noundef nonnull readnone align 8 captures(none) dereferenceable(258) %0, ptr noundef nonnull align 8 dereferenceable(8) %1, ptr noundef %2) local_unnamed_addr #3 align 2 {
  %4 = load ptr, ptr %1, align 8, !tbaa !77
  %5 = icmp eq ptr %4, null
  br i1 %5, label %17, label %_ZNK6vectorIPN7datalog4ruleELb0EjE5emptyEv.exit

_ZNK6vectorIPN7datalog4ruleELb0EjE5emptyEv.exit:  ; preds = %3
  %6 = getelementptr inbounds i8, ptr %4, i64 -4
  %7 = load i32, ptr %6, align 4, !tbaa !78
  %8 = icmp eq i32 %7, 0
  br i1 %8, label %13, label %_ZN6vectorIPN7datalog4ruleELb0EjE4backEv.exit

_ZN6vectorIPN7datalog4ruleELb0EjE4backEv.exit:    ; preds = %_ZNK6vectorIPN7datalog4ruleELb0EjE5emptyEv.exit
  %9 = add i32 %7, -1
  %10 = zext i32 %9 to i64
  %11 = getelementptr inbounds nuw ptr, ptr %4, i64 %10
  %12 = load ptr, ptr %11, align 8, !tbaa !79
  %.not = icmp eq ptr %12, %2
  br i1 %.not, label %24, label %13

13:                                               ; preds = %_ZN6vectorIPN7datalog4ruleELb0EjE4backEv.exit, %_ZNK6vectorIPN7datalog4ruleELb0EjE5emptyEv.exit
  %14 = getelementptr inbounds i8, ptr %4, i64 -8
  %15 = load i32, ptr %14, align 4, !tbaa !78
  %16 = icmp eq i32 %7, %15
  br i1 %16, label %17, label %_ZN6vectorIPN7datalog4ruleELb0EjE9push_backERKS2_.exit

17:                                               ; preds = %3, %13
  tail call void @_ZN6vectorIPN7datalog4ruleELb0EjE13expand_vectorEv(ptr noundef nonnull align 8 dereferenceable(8) %1)
  %.pre.i = load ptr, ptr %1, align 8, !tbaa !77
  %.phi.trans.insert.i = getelementptr inbounds i8, ptr %.pre.i, i64 -4
  %.pre2.i = load i32, ptr %.phi.trans.insert.i, align 4, !tbaa !78
  br label %_ZN6vectorIPN7datalog4ruleELb0EjE9push_backERKS2_.exit

_ZN6vectorIPN7datalog4ruleELb0EjE9push_backERKS2_.exit: ; preds = %13, %17
  %18 = phi i32 [ %.pre2.i, %17 ], [ %7, %13 ]
  %19 = phi ptr [ %.pre.i, %17 ], [ %4, %13 ]
  %20 = getelementptr inbounds i8, ptr %19, i64 -4
  %21 = zext i32 %18 to i64
  %22 = getelementptr inbounds nuw ptr, ptr %19, i64 %21
  store ptr %2, ptr %22, align 8, !tbaa !79
  %23 = add i32 %18, 1
  store i32 %23, ptr %20, align 4, !tbaa !78
  br label %24

24:                                               ; preds = %_ZN6vectorIPN7datalog4ruleELb0EjE9push_backERKS2_.exit, %_ZN6vectorIPN7datalog4ruleELb0EjE4backEv.exit
  ret void
}